Certificate:
    Data:
        Version: 3 (0x2)
        Serial Number: 1 (0x1)
    Signature Algorithm: sha1WithRSAEncryption
        Issuer: C=QA, ST=Some-State, L=Doha, O=My Company, OU=My Certificate Authority, CN=lisod/emailAddress=encyclogames@gmail.com
        Validity
            Not Before: Mar 18 10:41:43 2014 GMT
            Not After : Mar 18 10:41:43 2015 GMT
        Subject: C=QA, ST=Some-State, L=Doha, O=My Company, OU=My Web Server, CN=lisod-crt/emailAddress=whatever@server.example.com
        Subject Public Key Info:
            Public Key Algorithm: rsaEncryption
                Public-Key: (1024 bit)
                Modulus:
                    00:be:93:3c:fb:2c:3f:4e:77:07:a4:05:4e:16:be:
                    f7:4d:96:ad:f0:b2:6d:ec:cf:b7:5b:fe:e1:d5:9c:
                    17:6c:e1:00:75:db:f0:53:22:bd:70:ec:15:d0:df:
                    56:7d:44:2c:b4:88:2b:55:02:78:6b:9f:a6:d1:3b:
                    b9:21:ff:8e:89:83:ea:34:3b:54:af:f4:b4:d0:cf:
                    79:10:b9:53:17:90:c8:15:f7:6c:2f:a2:37:d7:df:
                    c4:64:db:c2:91:60:05:4a:40:b8:1b:68:16:a1:7d:
                    0d:7f:ab:4d:a8:45:a2:28:52:ce:3d:b8:f3:86:e3:
                    d5:60:76:d6:e7:87:2f:92:63
                Exponent: 65537 (0x10001)
        X509v3 extensions:
            X509v3 Basic Constraints: 
                CA:FALSE
            Netscape Comment: 
                OpenSSL Generated Certificate
            X509v3 Subject Key Identifier: 
                C4:12:76:46:AD:96:50:A6:27:AD:14:16:D8:99:89:E1:07:7B:E0:12
            X509v3 Authority Key Identifier: 
                keyid:AD:DF:FB:0D:11:A1:C0:54:36:76:A1:7F:CC:B6:65:EC:32:7F:3B:AD

    Signature Algorithm: sha1WithRSAEncryption
         af:ba:ed:6a:53:cf:8e:fc:38:ba:30:c9:b8:0e:47:72:32:17:
         b1:43:2d:1c:08:55:aa:3b:e8:31:43:1c:15:31:e7:69:e3:22:
         34:92:9d:52:8e:f5:d1:13:c7:ee:cc:05:df:23:5f:16:2c:d4:
         7a:52:db:9c:30:76:8a:d8:a5:f5:dd:4f:74:fc:6b:52:1d:92:
         c5:7d:4d:21:19:02:cc:b8:ac:4c:01:46:cd:92:98:e2:67:7e:
         b0:61:37:95:90:28:33:2a:d6:30:6b:20:a3:88:84:1c:b5:b7:
         1b:9b:a3:d1:08:3e:b4:15:68:dc:86:94:da:9b:03:8c:8c:b8:
         a1:5f
-----BEGIN CERTIFICATE-----
MIIDMTCCApqgAwIBAgIBATANBgkqhkiG9w0BAQUFADCBoDELMAkGA1UEBhMCUUEx
EzARBgNVBAgMClNvbWUtU3RhdGUxDTALBgNVBAcMBERvaGExEzARBgNVBAoMCk15
IENvbXBhbnkxITAfBgNVBAsMGE15IENlcnRpZmljYXRlIEF1dGhvcml0eTEOMAwG
A1UEAwwFbGlzb2QxJTAjBgkqhkiG9w0BCQEWFmVuY3ljbG9nYW1lc0BnbWFpbC5j
b20wHhcNMTQwMzE4MTA0MTQzWhcNMTUwMzE4MTA0MTQzWjCBnjELMAkGA1UEBhMC
UUExEzARBgNVBAgMClNvbWUtU3RhdGUxDTALBgNVBAcMBERvaGExEzARBgNVBAoM
Ck15IENvbXBhbnkxFjAUBgNVBAsMDU15IFdlYiBTZXJ2ZXIxEjAQBgNVBAMMCWxp
c29kLWNydDEqMCgGCSqGSIb3DQEJARYbd2hhdGV2ZXJAc2VydmVyLmV4YW1wbGUu
Y29tMIGfMA0GCSqGSIb3DQEBAQUAA4GNADCBiQKBgQC+kzz7LD9OdwekBU4WvvdN
lq3wsm3sz7db/uHVnBds4QB12/BTIr1w7BXQ31Z9RCy0iCtVAnhrn6bRO7kh/46J
g+o0O1Sv9LTQz3kQuVMXkMgV92wvojfX38Rk28KRYAVKQLgbaBahfQ1/q02oRaIo
Us49uPOG49Vgdtbnhy+SYwIDAQABo3sweTAJBgNVHRMEAjAAMCwGCWCGSAGG+EIB
DQQfFh1PcGVuU1NMIEdlbmVyYXRlZCBDZXJ0aWZpY2F0ZTAdBgNVHQ4EFgQUxBJ2
Rq2WUKYnrRQW2JmJ4Qd74BIwHwYDVR0jBBgwFoAUrd/7DRGhwFQ2dqF/zLZl7DJ/
O60wDQYJKoZIhvcNAQEFBQADgYEAr7rtalPPjvw4ujDJuA5HcjIXsUMtHAhVqjvo
MUMcFTHnaeMiNJKdUo710RPH7swF3yNfFizUelLbnDB2itil9d1PdPxrUh2SxX1N
IRkCzLisTAFGzZKY4md+sGE3lZAoMyrWMGsgo4iEHLW3G5uj0Qg+tBVo3IaU2psD
jIy4oV8=
-----END CERTIFICATE-----
